; Function Attrs: nofree norecurse nosync nounwind memory(readwrite, inaccessiblemem: none) uwtable
define range(i32 -22, 1) i32 @av_fifo_peek(ptr noundef readonly captures(none) %0, ptr noundef writeonly captures(none) %1, i64 noundef %2, i64 noundef %3) local_unnamed_addr #6 {
  %5 = getelementptr inbounds nuw i8, ptr %0, i64 24
  %6 = load i64, ptr %5, align 8, !tbaa !18
  %7 = getelementptr inbounds nuw i8, ptr %0, i64 32
  %8 = load i64, ptr %7, align 8, !tbaa !17
  %.not.i.i = icmp ugt i64 %8, %6
  br i1 %.not.i.i, label %17, label %9

9:                                                ; preds = %4
  %10 = getelementptr inbounds nuw i8, ptr %0, i64 40
  %11 = load i32, ptr %10, align 8, !tbaa !14
  %.not10.i.i = icmp eq i32 %11, 0
  br i1 %.not10.i.i, label %12, label %17

12:                                               ; preds = %9
  %13 = getelementptr inbounds nuw i8, ptr %0, i64 16
  %14 = load i64, ptr %13, align 8, !tbaa !12
  %15 = sub i64 %8, %6
  %16 = add i64 %15, %14
  br label %av_fifo_can_read.exit.i

17:                                               ; preds = %9, %4
  %18 = sub i64 %8, %6
  br label %av_fifo_can_read.exit.i

av_fifo_can_read.exit.i:                          ; preds = %17, %12
  %.0.i.i = phi i64 [ %18, %17 ], [ %16, %12 ]
  %19 = icmp ugt i64 %3, %.0.i.i
  %20 = sub nuw i64 %.0.i.i, %3
  %21 = icmp ugt i64 %2, %20
  %or.cond70.i = select i1 %19, i1 true, i1 %21
  br i1 %or.cond70.i, label %fifo_peek_common.exit, label %22

22:                                               ; preds = %av_fifo_can_read.exit.i
  %23 = getelementptr inbounds nuw i8, ptr %0, i64 16
  %.not6680.i = icmp eq i64 %2, 0
  br i1 %.not6680.i, label %fifo_peek_common.exit, label %.lr.ph.i

.lr.ph.i:                                         ; preds = %22
  %24 = load i64, ptr %23, align 8, !tbaa !12
  %25 = sub i64 %24, %3
  %.not.i = icmp ult i64 %6, %25
  %26 = sub i64 0, %25
  %.051.p.i = select i1 %.not.i, i64 %3, i64 %26
  %.051.i = add i64 %.051.p.i, %6
  %27 = getelementptr inbounds nuw i8, ptr %0, i64 8
  %.pre.i = load i64, ptr %27, align 8, !tbaa !13
  br label %.lr.ph.split.us.i

.lr.ph.split.us.i:                                ; preds = %.lr.ph.split.us.i, %.lr.ph.i
  %28 = phi i64 [ %35, %.lr.ph.split.us.i ], [ %.pre.i, %.lr.ph.i ]
  %29 = phi i64 [ %39, %.lr.ph.split.us.i ], [ %24, %.lr.ph.i ]
  %.04883.us.i = phi ptr [ %37, %.lr.ph.split.us.i ], [ %1, %.lr.ph.i ]
  %.15282.us.i = phi i64 [ %spec.store.select.us.i, %.lr.ph.split.us.i ], [ %.051.i, %.lr.ph.i ]
  %.05481.us.i = phi i64 [ %40, %.lr.ph.split.us.i ], [ %2, %.lr.ph.i ]
  %30 = sub i64 %29, %.15282.us.i
  %.054..us.i = tail call i64 @llvm.umin.i64(i64 %30, i64 %.05481.us.i)
  %31 = load ptr, ptr %0, align 8, !tbaa !4
  %32 = mul i64 %.15282.us.i, %28
  %33 = getelementptr inbounds nuw i8, ptr %31, i64 %32
  %34 = mul i64 %.054..us.i, %28
  tail call void @llvm.memcpy.p0.p0.i64(ptr align 1 %.04883.us.i, ptr align 1 %33, i64 %34, i1 false)
  %35 = load i64, ptr %27, align 8, !tbaa !13
  %36 = mul i64 %35, %.054..us.i
  %37 = getelementptr inbounds nuw i8, ptr %.04883.us.i, i64 %36
  %38 = add i64 %.054..us.i, %.15282.us.i
  %39 = load i64, ptr %23, align 8, !tbaa !12
  %.not68.us.i = icmp ult i64 %38, %39
  %spec.store.select.us.i = select i1 %.not68.us.i, i64 %38, i64 0
  %40 = sub i64 %.05481.us.i, %.054..us.i
  %.not66.us.i = icmp eq i64 %40, 0
  br i1 %.not66.us.i, label %fifo_peek_common.exit, label %.lr.ph.split.us.i

fifo_peek_common.exit:                            ; preds = %.lr.ph.split.us.i, %22, %av_fifo_can_read.exit.i
  %.0.i = phi i32 [ -22, %av_fifo_can_read.exit.i ], [ 0, %22 ], [ 0, %.lr.ph.split.us.i ]
  ret i32 %.0.i
}